(dp1
S'session'
p2
(dp3
S'Suomi'
p4
S'Kimi R\xc3\xa4ikk\xc3\xb6nen'
p5
sS'Deutchland'
p6
S'Sebastian Vettel'
p7
sS'Great Britain'
p8
S'Jenson Button'
p9
sS'_accessed_time'
p10
F1429274646.722229
sS'_creation_time'
p11
F1429274646.722229
ss.